target datalayout = "e-m:e-p270:32:32-p271:32:32-p272:64:64-i64:64-i128:128-f80:128-n8:16:32:64-S128"
target triple = "x86_64-pc-linux-gnu"

%class.JfrSamplerWindow = type { %struct.JfrSamplerParams, i64, i64, i64, i64 }
%struct.JfrSamplerParams = type { i64, i64, i64, i8 }
%class.JfrAdaptiveSampler = type <{ ptr, %class.JfrPRNG, ptr, ptr, ptr, double, double, i64, i64, i32, [4 x i8] }>
%class.JfrPRNG = type { i64 }
%"struct.Atomic::LoadImpl.5" = type { i8 }
%"struct.Atomic::PlatformLoad" = type { i8 }

; Function Attrs: mustprogress nounwind uwtable
define linkonce_odr hidden noundef i64 @_ZNK6Atomic12PlatformLoadILm8EEclImEET_PVKS3_(ptr noundef nonnull align 1 dereferenceable(1) %0, ptr noundef %1) #1 comdat align 2 {
  %3 = alloca ptr, align 8
  %4 = alloca ptr, align 8
  store ptr %0, ptr %3, align 8
  store ptr %1, ptr %4, align 8
  %5 = load ptr, ptr %4, align 8
  %6 = load volatile i64, ptr %5, align 8
  ret i64 %6
}

; Function Attrs: mustprogress nounwind uwtable
define linkonce_odr hidden noundef i64 @_ZNK6Atomic8LoadImplImNS_12PlatformLoadILm8EEEvEclEPVKm(ptr noundef nonnull align 1 dereferenceable(1) %0, ptr noundef %1) #1 comdat align 2 {
  %3 = alloca ptr, align 8
  %4 = alloca ptr, align 8
  %5 = alloca %"struct.Atomic::PlatformLoad", align 1
  store ptr %0, ptr %3, align 8
  store ptr %1, ptr %4, align 8
  %6 = load ptr, ptr %4, align 8
  %7 = call noundef i64 @_ZNK6Atomic12PlatformLoadILm8EEclImEET_PVKS3_(ptr noundef nonnull align 1 dereferenceable(1) %5, ptr noundef %6)
  ret i64 %7
}

; Function Attrs: mustprogress nounwind uwtable
define linkonce_odr hidden noundef i64 @_ZN6Atomic4loadImEET_PVKS1_(ptr noundef %0) #1 comdat align 2 {
  %2 = alloca ptr, align 8
  %3 = alloca %"struct.Atomic::LoadImpl.5", align 1
  store ptr %0, ptr %2, align 8
  %4 = load ptr, ptr %2, align 8
  %5 = call noundef i64 @_ZNK6Atomic8LoadImplImNS_12PlatformLoadILm8EEEvEclEPVKm(ptr noundef nonnull align 1 dereferenceable(1) %3, ptr noundef %4)
  ret i64 %5
}

; Function Attrs: mustprogress nounwind uwtable
define hidden noundef i64 @_ZNK16JfrSamplerWindow15population_sizeEv(ptr noundef nonnull align 8 dereferenceable(64) %0) #1 align 2 {
  %2 = alloca ptr, align 8
  store ptr %0, ptr %2, align 8
  %3 = load ptr, ptr %2, align 8
  %4 = getelementptr inbounds %class.JfrSamplerWindow, ptr %3, i32 0, i32 4
  %5 = call noundef i64 @_ZN6Atomic4loadImEET_PVKS1_(ptr noundef %4)
  ret i64 %5
}

; Function Attrs: mustprogress nounwind uwtable
define hidden noundef i64 @_ZNK16JfrSamplerWindow11sample_sizeEv(ptr noundef nonnull align 8 dereferenceable(64) %0) #1 align 2 {
  %2 = alloca ptr, align 8
  %3 = alloca i64, align 8
  store ptr %0, ptr %2, align 8
  %4 = load ptr, ptr %2, align 8
  %5 = call noundef i64 @_ZNK16JfrSamplerWindow15population_sizeEv(ptr noundef nonnull align 8 dereferenceable(64) %4)
  store i64 %5, ptr %3, align 8
  %6 = load i64, ptr %3, align 8
  %7 = getelementptr inbounds %class.JfrSamplerWindow, ptr %4, i32 0, i32 3
  %8 = load i64, ptr %7, align 8
  %9 = icmp ugt i64 %6, %8
  br i1 %9, label %10, label %12

10:                                               ; preds = %1
  %11 = call noundef i64 @_ZNK16JfrSamplerWindow15max_sample_sizeEv(ptr noundef nonnull align 8 dereferenceable(64) %4)
  br label %17

12:                                               ; preds = %1
  %13 = load i64, ptr %3, align 8
  %14 = getelementptr inbounds %class.JfrSamplerWindow, ptr %4, i32 0, i32 2
  %15 = load i64, ptr %14, align 8
  %16 = udiv i64 %13, %15
  br label %17

17:                                               ; preds = %12, %10
  %18 = phi i64 [ %11, %10 ], [ %16, %12 ]
  ret i64 %18
}

; Function Attrs: mustprogress nounwind uwtable
define hidden noundef i64 @_ZNK16JfrSamplerWindow4debtEv(ptr noundef nonnull align 8 dereferenceable(64) %0) #1 align 2 {
  %2 = alloca ptr, align 8
  store ptr %0, ptr %2, align 8
  %3 = load ptr, ptr %2, align 8
  %4 = getelementptr inbounds %class.JfrSamplerWindow, ptr %3, i32 0, i32 3
  %5 = load i64, ptr %4, align 8
  %6 = icmp eq i64 %5, 0
  br i1 %6, label %7, label %8

7:                                                ; preds = %1
  br label %14

8:                                                ; preds = %1
  %9 = call noundef i64 @_ZNK16JfrSamplerWindow11sample_sizeEv(ptr noundef nonnull align 8 dereferenceable(64) %3)
  %10 = getelementptr inbounds %class.JfrSamplerWindow, ptr %3, i32 0, i32 0
  %11 = getelementptr inbounds %struct.JfrSamplerParams, ptr %10, i32 0, i32 0
  %12 = load i64, ptr %11, align 8
  %13 = sub i64 %9, %12
  br label %14

14:                                               ; preds = %8, %7
  %15 = phi i64 [ 0, %7 ], [ %13, %8 ]
  ret i64 %15
}

; Function Attrs: mustprogress nounwind uwtable
define linkonce_odr hidden noundef i64 @_ZNK16JfrSamplerWindow15max_sample_sizeEv(ptr noundef nonnull align 8 dereferenceable(64) %0) #1 comdat align 2 {
  %2 = alloca ptr, align 8
  store ptr %0, ptr %2, align 8
  %3 = load ptr, ptr %2, align 8
  %4 = getelementptr inbounds %class.JfrSamplerWindow, ptr %3, i32 0, i32 3
  %5 = load i64, ptr %4, align 8
  %6 = getelementptr inbounds %class.JfrSamplerWindow, ptr %3, i32 0, i32 2
  %7 = load i64, ptr %6, align 8
  %8 = udiv i64 %5, %7
  ret i64 %8
}

; Function Attrs: mustprogress nounwind uwtable
define hidden noundef i64 @_ZNK16JfrSamplerWindow16accumulated_debtEv(ptr noundef nonnull align 8 dereferenceable(64) %0) #1 align 2 {
  %2 = alloca ptr, align 8
  store ptr %0, ptr %2, align 8
  %3 = load ptr, ptr %2, align 8
  %4 = getelementptr inbounds %class.JfrSamplerWindow, ptr %3, i32 0, i32 3
  %5 = load i64, ptr %4, align 8
  %6 = icmp eq i64 %5, 0
  br i1 %6, label %7, label %8

7:                                                ; preds = %1
  br label %16

8:                                                ; preds = %1
  %9 = getelementptr inbounds %class.JfrSamplerWindow, ptr %3, i32 0, i32 0
  %10 = getelementptr inbounds %struct.JfrSamplerParams, ptr %9, i32 0, i32 0
  %11 = load i64, ptr %10, align 8
  %12 = call noundef i64 @_ZNK16JfrSamplerWindow15max_sample_sizeEv(ptr noundef nonnull align 8 dereferenceable(64) %3)
  %13 = sub i64 %11, %12
  %14 = call noundef i64 @_ZNK16JfrSamplerWindow4debtEv(ptr noundef nonnull align 8 dereferenceable(64) %3)
  %15 = add nsw i64 %13, %14
  br label %16

16:                                               ; preds = %8, %7
  %17 = phi i64 [ 0, %7 ], [ %15, %8 ]
  ret i64 %17
}

; Function Attrs: mustprogress nounwind uwtable
define hidden noundef i64 @_ZN18JfrAdaptiveSampler13amortize_debtEPK16JfrSamplerWindow(ptr noundef nonnull align 8 dereferenceable(76) %0, ptr noundef %1) #1 align 2 {
  %3 = alloca i64, align 8
  %4 = alloca ptr, align 8
  %5 = alloca ptr, align 8
  %6 = alloca i64, align 8
  store ptr %0, ptr %4, align 8
  store ptr %1, ptr %5, align 8
  %7 = load ptr, ptr %4, align 8
  %8 = load ptr, ptr %5, align 8
  %9 = call noundef i64 @_ZNK16JfrSamplerWindow16accumulated_debtEv(ptr noundef nonnull align 8 dereferenceable(64) %8)
  store i64 %9, ptr %6, align 8
  %10 = getelementptr inbounds %class.JfrAdaptiveSampler, ptr %7, i32 0, i32 8
  %11 = load i64, ptr %10, align 8
  %12 = getelementptr inbounds %class.JfrAdaptiveSampler, ptr %7, i32 0, i32 7
  %13 = load i64, ptr %12, align 8
  %14 = icmp eq i64 %11, %13
  br i1 %14, label %15, label %17

15:                                               ; preds = %2
  %16 = getelementptr inbounds %class.JfrAdaptiveSampler, ptr %7, i32 0, i32 8
  store i64 1, ptr %16, align 8
  store i64 0, ptr %3, align 8
  br label %23

17:                                               ; preds = %2
  %18 = getelementptr inbounds %class.JfrAdaptiveSampler, ptr %7, i32 0, i32 8
  %19 = load i64, ptr %18, align 8
  %20 = add i64 %19, 1
  store i64 %20, ptr %18, align 8
  %21 = load i64, ptr %6, align 8
  %22 = sub nsw i64 0, %21
  store i64 %22, ptr %3, align 8
  br label %23

23:                                               ; preds = %17, %15
  %24 = load i64, ptr %3, align 8
  ret i64 %24
}

; Function Attrs: mustprogress nounwind uwtable
define hidden noundef i64 @_ZN18JfrAdaptiveSampler19project_sample_sizeERK16JfrSamplerParamsPK16JfrSamplerWindow(ptr noundef nonnull align 8 dereferenceable(76) %0, ptr noundef nonnull align 8 dereferenceable(32) %1, ptr noundef %2) #1 align 2 {
  %4 = alloca ptr, align 8
  %5 = alloca ptr, align 8
  %6 = alloca ptr, align 8
  store ptr %0, ptr %4, align 8
  store ptr %1, ptr %5, align 8
  store ptr %2, ptr %6, align 8
  %7 = load ptr, ptr %4, align 8
  %8 = load ptr, ptr %5, align 8
  %9 = getelementptr inbounds %struct.JfrSamplerParams, ptr %8, i32 0, i32 0
  %10 = load i64, ptr %9, align 8
  %11 = load ptr, ptr %6, align 8
  %12 = call noundef i64 @_ZN18JfrAdaptiveSampler13amortize_debtEPK16JfrSamplerWindow(ptr noundef nonnull align 8 dereferenceable(76) %7, ptr noundef %11)
  %13 = add i64 %10, %12
  ret i64 %13
}