; Function Attrs: mustprogress nofree norecurse nounwind willreturn memory(argmem: readwrite, inaccessiblemem: readwrite) uwtable
define hidden noundef i64 @_ZN18JfrAdaptiveSampler19project_sample_sizeERK16JfrSamplerParamsPK16JfrSamplerWindow(ptr nocapture noundef nonnull align 8 dereferenceable(76) %0, ptr nocapture noundef nonnull readonly align 8 dereferenceable(32) %1, ptr noundef %2) local_unnamed_addr #9 align 2 {
  %4 = load i64, ptr %1, align 8
  %5 = getelementptr inbounds i8, ptr %2, i64 48
  %6 = load i64, ptr %5, align 8
  %7 = icmp eq i64 %6, 0
  br i1 %7, label %_ZN18JfrAdaptiveSampler13amortize_debtEPK16JfrSamplerWindow.exit, label %_ZNK16JfrSamplerWindow4debtEv.exit.i.i

_ZNK16JfrSamplerWindow4debtEv.exit.i.i:           ; preds = %3
  %8 = getelementptr inbounds i8, ptr %2, i64 40
  %9 = load i64, ptr %8, align 8
  %10 = udiv i64 %6, %9
  %11 = getelementptr inbounds i8, ptr %2, i64 56
  %12 = load volatile i64, ptr %11, align 8
  %..i.i.i.i = tail call i64 @llvm.umin.i64(i64 %12, i64 %6)
  %13 = udiv i64 %..i.i.i.i, %9
  %.neg.i = sub i64 %10, %13
  br label %_ZN18JfrAdaptiveSampler13amortize_debtEPK16JfrSamplerWindow.exit

_ZN18JfrAdaptiveSampler13amortize_debtEPK16JfrSamplerWindow.exit: ; preds = %3, %_ZNK16JfrSamplerWindow4debtEv.exit.i.i
  %.neg4.i = phi i64 [ %.neg.i, %_ZNK16JfrSamplerWindow4debtEv.exit.i.i ], [ 0, %3 ]
  %14 = getelementptr inbounds i8, ptr %0, i64 64
  %15 = load i64, ptr %14, align 8
  %16 = getelementptr inbounds i8, ptr %0, i64 56
  %17 = load i64, ptr %16, align 8
  %18 = icmp eq i64 %15, %17
  %19 = add i64 %15, 1
  %storemerge.i = select i1 %18, i64 1, i64 %19
  %.0.i = select i1 %18, i64 0, i64 %.neg4.i
  store i64 %storemerge.i, ptr %14, align 8
  %20 = add i64 %.0.i, %4
  ret i64 %20
}